(dp0
S'status'
p1
S'success'
p2
sS'message'
p3
S'Fetching completed.'
p4
sS'raw-data'
p5
(dp6
VgradingInProgress
p7
NsVslug
p8
Vsummer-2014
p9
sVname
p10
VSummer 2014
p11
sVtermCode
p12
VC
p13
sVclasses
p14
(lp15
(dp16
Vtitle
p17
VProfessional Communication
p18
sVurl
p19
V/academics/semester/summer-2014/class/mec_eng-191k
p20
sVtranscript
p21
NsVdept
p22
VMEC ENG
p23
sVdept_desc
p24
VMechanical Engineering
p25
sVcourseCatalog
p26
V191K
p27
sVclass_sites
p28
(lp29
(dp30
Vname
p31
VMEC ENG 191K LEC 001 Su14
p32
sVsiteType
p33
Vcourse
p34
sVsite_url
p35
Vhttps://bspace.berkeley.edu/portal/site/a301c9ff-53fd-416d-8624-9fe56d51d2a7
p36
sVid
p37
Va301c9ff-53fd-416d-8624-9fe56d51d2a7
p38
sVshortDescription
p39
V
p40
sVemitter
p41
VbSpace
p42
sasVcourse_id
p43
Vmec_eng-191k-2014-C
p44
sVcourse_code
p45
VMEC ENG 191K
p46
sVsections
p47
(lp48
(dp49
Vinstructors
p50
(lp51
(dp52
Vname
p53
VMarcel KRISTEL
p54
sVuid
p55
V5525
p56
sasVschedules
p57
(lp58
(dp59
VroomNumber
p60
V3113
p61
sVbuildingName
p62
VETCHEVERRY
p63
sVschedule
p64
VTuTh 9:00A-12:00P
p65
sasVsection_number
p66
V001
p67
sVgradeOption
p68
VLetter
p69
sVcred_cd
p70
NsVccn
p71
V39895
p72
sVpnp_flag
p73
VN
p74
sVunits
p75
V3.0
p76
sVinstruction_format
p77
VLEC
p78
sVis_primary_section
p79
I01
sVunit
p80
V3.0
p81
sVsection_label
p82
VLEC 001
p83
sasVslug
p84
Vmec_eng-191k
p85
sa(dp86
Vtitle
p87
VIntroduction to Managerial Accounting
p88
sVurl
p89
V/academics/semester/summer-2014/class/ugba-102b
p90
sVtranscript
p91
NsVdept
p92
VUGBA
p93
sVdept_desc
p94
VUndergrad. Business Administration
p95
sVcourseCatalog
p96
V102B
p97
sVclass_sites
p98
(lp99
(dp100
Vname
p101
VUGBA 102B LEC 002 Su14
p102
sVsiteType
p103
Vcourse
p104
sVsite_url
p105
Vhttps://bspace.berkeley.edu/portal/site/04045cd4-2c18-4018-8494-18261cd61ed1
p106
sVid
p107
V04045cd4-2c18-4018-8494-18261cd61ed1
p108
sVshortDescription
p109
g40
sVemitter
p110
VbSpace
p111
sa(dp112
Vname
p113
VUGBA 102B DIS 201 Su14
p114
sVsiteType
p115
Vcourse
p116
sVsite_url
p117
Vhttps://bspace.berkeley.edu/portal/site/0e977554-8676-4a73-8c0c-cc26cf4d8f41
p118
sVid
p119
V0e977554-8676-4a73-8c0c-cc26cf4d8f41
p120
sVshortDescription
p121
g40
sVemitter
p122
VbSpace
p123
sasVcourse_id
p124
Vugba-102b-2014-C
p125
sVcourse_code
p126
VUGBA 102B
p127
sVsections
p128
(lp129
(dp130
Vinstructors
p131
(lp132
(dp133
Vname
p134
VDennis GEYER
p135
sVuid
p136
V242012
p137
sasVschedules
p138
(lp139
(dp140
VroomNumber
p141
V C0210
p142
sVbuildingName
p143
VCHEIT
p144
sVschedule
p145
VMW 6:00P-8:30P
p146
sasVsection_number
p147
V002
p148
sVgradeOption
p149
VLetter
p150
sVcred_cd
p151
NsVccn
p152
V19190
p153
sVpnp_flag
p154
g74
sVunits
p155
V3.0
p156
sVinstruction_format
p157
VLEC
p158
sVis_primary_section
p159
I01
sVunit
p160
V3.0
p161
sVsection_label
p162
VLEC 002
p163
sa(dp164
Vinstructors
p165
(lp166
sVsection_number
p167
V201
p168
sVccn
p169
V19195
p170
sVschedules
p171
(lp172
(dp173
VroomNumber
p174
V C0210
p175
sVbuildingName
p176
VCHEIT
p177
sVschedule
p178
VTuTh 6:00P-8:30P
p179
sasVinstruction_format
p180
VDIS
p181
sVis_primary_section
p182
I00
sVsection_label
p183
VDIS 201
p184
sasVslug
p185
Vugba-102b
p186
sasVtimeBucket
p187
Vcurrent
p188
sVtermYear
p189
V2014
p190
ss.